; Function Attrs: nounwind uwtable
define internal { i64, ptr } @f_isnan(ptr readnone captures(none) %0, i64 %1, ptr %2) #0 {
  %4 = tail call i32 @jv_get_kind(i64 %1, ptr %2) #14
  %.not = icmp eq i32 %4, 4
  br i1 %.not, label %7, label %5

5:                                                ; preds = %3
  tail call void @jv_free(i64 %1, ptr %2) #14
  %6 = tail call { i64, ptr } @jv_false() #14
  br label %14

7:                                                ; preds = %3
  %8 = tail call double @jv_number_value(i64 %1, ptr %2) #14
  tail call void @jv_free(i64 %1, ptr %2) #14
  %9 = fcmp uno double %8, 0.000000e+00
  br i1 %9, label %10, label %12

10:                                               ; preds = %7
  %11 = tail call { i64, ptr } @jv_true() #14
  br label %14

12:                                               ; preds = %7
  %13 = tail call { i64, ptr } @jv_false() #14
  br label %14

14:                                               ; preds = %10, %12, %5
  %.pn9 = phi { i64, ptr } [ %6, %5 ], [ %11, %10 ], [ %13, %12 ]
  ret { i64, ptr } %.pn9
}